target datalayout = "e-m:e-p270:32:32-p271:32:32-p272:64:64-i64:64-i128:128-f80:128-n8:16:32:64-S128"
target triple = "x86_64-pc-linux-gnu"

%"class.cv::dnn_objdetect::InferBbox" = type { %"class.std::vector", %"class.cv::Mat", %"class.cv::Mat", %"class.cv::Mat", i32, i32, i32, i32, %"class.std::vector.0", %"class.std::vector.5", %"class.std::vector.5", %"class.std::vector.10", i32, i32, i64, double, double, i64, double }
%"class.std::vector" = type { %"struct.std::_Vector_base" }
%"struct.std::_Vector_base" = type { %"struct.std::_Vector_base<cv::dnn_objdetect::object, std::allocator<cv::dnn_objdetect::object>>::_Vector_impl" }
%"struct.std::_Vector_base<cv::dnn_objdetect::object, std::allocator<cv::dnn_objdetect::object>>::_Vector_impl" = type { %"struct.std::_Vector_base<cv::dnn_objdetect::object, std::allocator<cv::dnn_objdetect::object>>::_Vector_impl_data" }
%"struct.std::_Vector_base<cv::dnn_objdetect::object, std::allocator<cv::dnn_objdetect::object>>::_Vector_impl_data" = type { ptr, ptr, ptr }
%"class.cv::Mat" = type { i32, i32, i32, i32, ptr, ptr, ptr, ptr, ptr, ptr, %"struct.cv::MatSize", %"struct.cv::MatStep" }
%"struct.cv::MatSize" = type { ptr }
%"struct.cv::MatStep" = type { ptr, [2 x i64] }
%"class.std::vector.0" = type { %"struct.std::_Vector_base.1" }
%"struct.std::_Vector_base.1" = type { %"struct.std::_Vector_base<std::vector<double>, std::allocator<std::vector<double>>>::_Vector_impl" }
%"struct.std::_Vector_base<std::vector<double>, std::allocator<std::vector<double>>>::_Vector_impl" = type { %"struct.std::_Vector_base<std::vector<double>, std::allocator<std::vector<double>>>::_Vector_impl_data" }
%"struct.std::_Vector_base<std::vector<double>, std::allocator<std::vector<double>>>::_Vector_impl_data" = type { ptr, ptr, ptr }
%"class.std::vector.5" = type { %"struct.std::_Vector_base.6" }
%"struct.std::_Vector_base.6" = type { %"struct.std::_Vector_base<std::pair<double, double>, std::allocator<std::pair<double, double>>>::_Vector_impl" }
%"struct.std::_Vector_base<std::pair<double, double>, std::allocator<std::pair<double, double>>>::_Vector_impl" = type { %"struct.std::_Vector_base<std::pair<double, double>, std::allocator<std::pair<double, double>>>::_Vector_impl_data" }
%"struct.std::_Vector_base<std::pair<double, double>, std::allocator<std::pair<double, double>>>::_Vector_impl_data" = type { ptr, ptr, ptr }
%"class.std::vector.10" = type { %"struct.std::_Vector_base.11" }
%"struct.std::_Vector_base.11" = type { %"struct.std::_Vector_base<std::__cxx11::basic_string<char>, std::allocator<std::__cxx11::basic_string<char>>>::_Vector_impl" }
%"struct.std::_Vector_base<std::__cxx11::basic_string<char>, std::allocator<std::__cxx11::basic_string<char>>>::_Vector_impl" = type { %"struct.std::_Vector_base<std::__cxx11::basic_string<char>, std::allocator<std::__cxx11::basic_string<char>>>::_Vector_impl_data" }
%"struct.std::_Vector_base<std::__cxx11::basic_string<char>, std::allocator<std::__cxx11::basic_string<char>>>::_Vector_impl_data" = type { ptr, ptr, ptr }
%"class.std::vector.15" = type { %"struct.std::_Vector_base.16" }
%"struct.std::_Vector_base.16" = type { %"struct.std::_Vector_base<double, std::allocator<double>>::_Vector_impl" }
%"struct.std::_Vector_base<double, std::allocator<double>>::_Vector_impl" = type { %"struct.std::_Vector_base<double, std::allocator<double>>::_Vector_impl_data" }
%"struct.std::_Vector_base<double, std::allocator<double>>::_Vector_impl_data" = type { ptr, ptr, ptr }

; Function Attrs: inlinehint mustprogress nounwind uwtable
define linkonce_odr noundef nonnull align 8 dereferenceable(8) ptr @_ZSt3minIdERKT_S2_S2_(ptr noundef nonnull align 8 dereferenceable(8) %0, ptr noundef nonnull align 8 dereferenceable(8) %1) #10 comdat {
  %3 = alloca ptr, align 8
  %4 = alloca ptr, align 8
  %5 = alloca ptr, align 8
  store ptr %0, ptr %4, align 8, !tbaa !78
  store ptr %1, ptr %5, align 8, !tbaa !78
  %6 = load ptr, ptr %5, align 8, !tbaa !78
  %7 = load double, ptr %6, align 8, !tbaa !56
  %8 = load ptr, ptr %4, align 8, !tbaa !78
  %9 = load double, ptr %8, align 8, !tbaa !56
  %10 = fcmp olt double %7, %9
  br i1 %10, label %11, label %13

11:                                               ; preds = %2
  %12 = load ptr, ptr %5, align 8, !tbaa !78
  store ptr %12, ptr %3, align 8
  br label %15

13:                                               ; preds = %2
  %14 = load ptr, ptr %4, align 8, !tbaa !78
  store ptr %14, ptr %3, align 8
  br label %15

15:                                               ; preds = %13, %11
  %16 = load ptr, ptr %3, align 8
  ret ptr %16
}

; Function Attrs: inlinehint mustprogress nounwind uwtable
define linkonce_odr noundef nonnull align 8 dereferenceable(8) ptr @_ZSt3maxIdERKT_S2_S2_(ptr noundef nonnull align 8 dereferenceable(8) %0, ptr noundef nonnull align 8 dereferenceable(8) %1) #10 comdat {
  %3 = alloca ptr, align 8
  %4 = alloca ptr, align 8
  %5 = alloca ptr, align 8
  store ptr %0, ptr %4, align 8, !tbaa !78
  store ptr %1, ptr %5, align 8, !tbaa !78
  %6 = load ptr, ptr %4, align 8, !tbaa !78
  %7 = load double, ptr %6, align 8, !tbaa !56
  %8 = load ptr, ptr %5, align 8, !tbaa !78
  %9 = load double, ptr %8, align 8, !tbaa !56
  %10 = fcmp olt double %7, %9
  br i1 %10, label %11, label %13

11:                                               ; preds = %2
  %12 = load ptr, ptr %5, align 8, !tbaa !78
  store ptr %12, ptr %3, align 8
  br label %15

13:                                               ; preds = %2
  %14 = load ptr, ptr %4, align 8, !tbaa !78
  store ptr %14, ptr %3, align 8
  br label %15

15:                                               ; preds = %13, %11
  %16 = load ptr, ptr %3, align 8
  ret ptr %16
}

; Function Attrs: mustprogress nounwind uwtable
define linkonce_odr hidden noundef nonnull align 8 dereferenceable(8) ptr @_ZNSt6vectorIdSaIdEEixEm(ptr noundef nonnull align 8 dereferenceable(24) %0, i64 noundef %1) #5 comdat align 2 {
  %3 = alloca ptr, align 8
  %4 = alloca i64, align 8
  store ptr %0, ptr %3, align 8, !tbaa !73
  store i64 %1, ptr %4, align 8, !tbaa !52
  %5 = load ptr, ptr %3, align 8
  %6 = getelementptr inbounds nuw %"struct.std::_Vector_base.16", ptr %5, i32 0, i32 0
  %7 = getelementptr inbounds nuw %"struct.std::_Vector_base<double, std::allocator<double>>::_Vector_impl_data", ptr %6, i32 0, i32 0
  %8 = load ptr, ptr %7, align 8, !tbaa !74
  %9 = load i64, ptr %4, align 8, !tbaa !52
  %10 = getelementptr inbounds nuw double, ptr %8, i64 %9
  ret ptr %10
}

; Function Attrs: mustprogress nounwind uwtable
define linkonce_odr hidden noundef nonnull align 8 dereferenceable(24) ptr @_ZNSt6vectorIS_IdSaIdEESaIS1_EEixEm(ptr noundef nonnull align 8 dereferenceable(24) %0, i64 noundef %1) #5 comdat align 2 {
  %3 = alloca ptr, align 8
  %4 = alloca i64, align 8
  store ptr %0, ptr %3, align 8, !tbaa !66
  store i64 %1, ptr %4, align 8, !tbaa !52
  %5 = load ptr, ptr %3, align 8
  %6 = getelementptr inbounds nuw %"struct.std::_Vector_base.1", ptr %5, i32 0, i32 0
  %7 = getelementptr inbounds nuw %"struct.std::_Vector_base<std::vector<double>, std::allocator<std::vector<double>>>::_Vector_impl_data", ptr %6, i32 0, i32 0
  %8 = load ptr, ptr %7, align 8, !tbaa !72
  %9 = load i64, ptr %4, align 8, !tbaa !52
  %10 = getelementptr inbounds nuw %"class.std::vector.15", ptr %8, i64 %9
  ret ptr %10
}

; Function Attrs: mustprogress uwtable
define void @_ZN2cv13dnn_objdetect9InferBbox18assert_predictionsEPSt6vectorIS2_IdSaIdEESaIS4_EE(ptr noundef nonnull align 8 dereferenceable(472) %0, ptr noundef %1) #4 align 2 {
  %3 = alloca ptr, align 8
  %4 = alloca ptr, align 8
  %5 = alloca i64, align 8
  %6 = alloca double, align 8
  %7 = alloca double, align 8
  %8 = alloca double, align 8
  %9 = alloca double, align 8
  %10 = alloca double, align 8
  %11 = alloca double, align 8
  %12 = alloca double, align 8
  %13 = alloca double, align 8
  %14 = alloca double, align 8
  %15 = alloca double, align 8
  %16 = alloca double, align 8
  %17 = alloca double, align 8
  store ptr %0, ptr %3, align 8, !tbaa !3
  store ptr %1, ptr %4, align 8, !tbaa !66
  %18 = load ptr, ptr %3, align 8
  call void @llvm.lifetime.start.p0(i64 8, ptr %5) #3
  store i64 0, ptr %5, align 8, !tbaa !52
  br label %19

19:                                               ; preds = %90, %2
  %20 = load i64, ptr %5, align 8, !tbaa !52
  %21 = getelementptr inbounds nuw %"class.cv::dnn_objdetect::InferBbox", ptr %18, i32 0, i32 14
  %22 = load i64, ptr %21, align 8, !tbaa !47
  %23 = icmp ult i64 %20, %22
  br i1 %23, label %25, label %24

24:                                               ; preds = %19
  call void @llvm.lifetime.end.p0(i64 8, ptr %5) #3
  br label %93

25:                                               ; preds = %19
  call void @llvm.lifetime.start.p0(i64 8, ptr %6) #3
  %26 = load ptr, ptr %4, align 8, !tbaa !66
  %27 = load i64, ptr %5, align 8, !tbaa !52
  %28 = call noundef nonnull align 8 dereferenceable(24) ptr @_ZNSt6vectorIS_IdSaIdEESaIS1_EEixEm(ptr noundef nonnull align 8 dereferenceable(24) %26, i64 noundef %27) #3
  %29 = call noundef nonnull align 8 dereferenceable(8) ptr @_ZNSt6vectorIdSaIdEEixEm(ptr noundef nonnull align 8 dereferenceable(24) %28, i64 noundef 0) #3
  %30 = load double, ptr %29, align 8, !tbaa !56
  store double %30, ptr %6, align 8, !tbaa !56
  call void @llvm.lifetime.start.p0(i64 8, ptr %7) #3
  %31 = load ptr, ptr %4, align 8, !tbaa !66
  %32 = load i64, ptr %5, align 8, !tbaa !52
  %33 = call noundef nonnull align 8 dereferenceable(24) ptr @_ZNSt6vectorIS_IdSaIdEESaIS1_EEixEm(ptr noundef nonnull align 8 dereferenceable(24) %31, i64 noundef %32) #3
  %34 = call noundef nonnull align 8 dereferenceable(8) ptr @_ZNSt6vectorIdSaIdEEixEm(ptr noundef nonnull align 8 dereferenceable(24) %33, i64 noundef 1) #3
  %35 = load double, ptr %34, align 8, !tbaa !56
  store double %35, ptr %7, align 8, !tbaa !56
  call void @llvm.lifetime.start.p0(i64 8, ptr %8) #3
  %36 = load ptr, ptr %4, align 8, !tbaa !66
  %37 = load i64, ptr %5, align 8, !tbaa !52
  %38 = call noundef nonnull align 8 dereferenceable(24) ptr @_ZNSt6vectorIS_IdSaIdEESaIS1_EEixEm(ptr noundef nonnull align 8 dereferenceable(24) %36, i64 noundef %37) #3
  %39 = call noundef nonnull align 8 dereferenceable(8) ptr @_ZNSt6vectorIdSaIdEEixEm(ptr noundef nonnull align 8 dereferenceable(24) %38, i64 noundef 2) #3
  %40 = load double, ptr %39, align 8, !tbaa !56
  store double %40, ptr %8, align 8, !tbaa !56
  call void @llvm.lifetime.start.p0(i64 8, ptr %9) #3
  %41 = load ptr, ptr %4, align 8, !tbaa !66
  %42 = load i64, ptr %5, align 8, !tbaa !52
  %43 = call noundef nonnull align 8 dereferenceable(24) ptr @_ZNSt6vectorIS_IdSaIdEESaIS1_EEixEm(ptr noundef nonnull align 8 dereferenceable(24) %41, i64 noundef %42) #3
  %44 = call noundef nonnull align 8 dereferenceable(8) ptr @_ZNSt6vectorIdSaIdEEixEm(ptr noundef nonnull align 8 dereferenceable(24) %43, i64 noundef 3) #3
  %45 = load double, ptr %44, align 8, !tbaa !56
  store double %45, ptr %9, align 8, !tbaa !56
  call void @llvm.lifetime.start.p0(i64 8, ptr %10) #3
  store double 0.000000e+00, ptr %10, align 8, !tbaa !56
  %46 = call noundef nonnull align 8 dereferenceable(8) ptr @_ZSt3maxIdERKT_S2_S2_(ptr noundef nonnull align 8 dereferenceable(8) %10, ptr noundef nonnull align 8 dereferenceable(8) %6)
  call void @llvm.lifetime.start.p0(i64 8, ptr %11) #3
  %47 = getelementptr inbounds nuw %"class.cv::dnn_objdetect::InferBbox", ptr %18, i32 0, i32 4
  %48 = load i32, ptr %47, align 8, !tbaa !10
  %49 = uitofp i32 %48 to double
  %50 = fsub double %49, 1.000000e+00
  store double %50, ptr %11, align 8, !tbaa !56
  %51 = call noundef nonnull align 8 dereferenceable(8) ptr @_ZSt3minIdERKT_S2_S2_(ptr noundef nonnull align 8 dereferenceable(8) %46, ptr noundef nonnull align 8 dereferenceable(8) %11)
  %52 = load double, ptr %51, align 8, !tbaa !56
  %53 = load ptr, ptr %4, align 8, !tbaa !66
  %54 = load i64, ptr %5, align 8, !tbaa !52
  %55 = call noundef nonnull align 8 dereferenceable(24) ptr @_ZNSt6vectorIS_IdSaIdEESaIS1_EEixEm(ptr noundef nonnull align 8 dereferenceable(24) %53, i64 noundef %54) #3
  %56 = call noundef nonnull align 8 dereferenceable(8) ptr @_ZNSt6vectorIdSaIdEEixEm(ptr noundef nonnull align 8 dereferenceable(24) %55, i64 noundef 0) #3
  store double %52, ptr %56, align 8, !tbaa !56
  call void @llvm.lifetime.end.p0(i64 8, ptr %11) #3
  call void @llvm.lifetime.end.p0(i64 8, ptr %10) #3
  call void @llvm.lifetime.start.p0(i64 8, ptr %12) #3
  store double 0.000000e+00, ptr %12, align 8, !tbaa !56
  %57 = call noundef nonnull align 8 dereferenceable(8) ptr @_ZSt3maxIdERKT_S2_S2_(ptr noundef nonnull align 8 dereferenceable(8) %12, ptr noundef nonnull align 8 dereferenceable(8) %7)
  call void @llvm.lifetime.start.p0(i64 8, ptr %13) #3
  %58 = getelementptr inbounds nuw %"class.cv::dnn_objdetect::InferBbox", ptr %18, i32 0, i32 5
  %59 = load i32, ptr %58, align 4, !tbaa !42
  %60 = uitofp i32 %59 to double
  %61 = fsub double %60, 1.000000e+00
  store double %61, ptr %13, align 8, !tbaa !56
  %62 = call noundef nonnull align 8 dereferenceable(8) ptr @_ZSt3minIdERKT_S2_S2_(ptr noundef nonnull align 8 dereferenceable(8) %57, ptr noundef nonnull align 8 dereferenceable(8) %13)
  %63 = load double, ptr %62, align 8, !tbaa !56
  %64 = load ptr, ptr %4, align 8, !tbaa !66
  %65 = load i64, ptr %5, align 8, !tbaa !52
  %66 = call noundef nonnull align 8 dereferenceable(24) ptr @_ZNSt6vectorIS_IdSaIdEESaIS1_EEixEm(ptr noundef nonnull align 8 dereferenceable(24) %64, i64 noundef %65) #3
  %67 = call noundef nonnull align 8 dereferenceable(8) ptr @_ZNSt6vectorIdSaIdEEixEm(ptr noundef nonnull align 8 dereferenceable(24) %66, i64 noundef 1) #3
  store double %63, ptr %67, align 8, !tbaa !56
  call void @llvm.lifetime.end.p0(i64 8, ptr %13) #3
  call void @llvm.lifetime.end.p0(i64 8, ptr %12) #3
  call void @llvm.lifetime.start.p0(i64 8, ptr %14) #3
  %68 = getelementptr inbounds nuw %"class.cv::dnn_objdetect::InferBbox", ptr %18, i32 0, i32 4
  %69 = load i32, ptr %68, align 8, !tbaa !10
  %70 = uitofp i32 %69 to double
  %71 = fsub double %70, 1.000000e+00
  store double %71, ptr %14, align 8, !tbaa !56
  %72 = call noundef nonnull align 8 dereferenceable(8) ptr @_ZSt3minIdERKT_S2_S2_(ptr noundef nonnull align 8 dereferenceable(8) %14, ptr noundef nonnull align 8 dereferenceable(8) %8)
  call void @llvm.lifetime.start.p0(i64 8, ptr %15) #3
  store double 0.000000e+00, ptr %15, align 8, !tbaa !56
  %73 = call noundef nonnull align 8 dereferenceable(8) ptr @_ZSt3maxIdERKT_S2_S2_(ptr noundef nonnull align 8 dereferenceable(8) %72, ptr noundef nonnull align 8 dereferenceable(8) %15)
  %74 = load double, ptr %73, align 8, !tbaa !56
  %75 = load ptr, ptr %4, align 8, !tbaa !66
  %76 = load i64, ptr %5, align 8, !tbaa !52
  %77 = call noundef nonnull align 8 dereferenceable(24) ptr @_ZNSt6vectorIS_IdSaIdEESaIS1_EEixEm(ptr noundef nonnull align 8 dereferenceable(24) %75, i64 noundef %76) #3
  %78 = call noundef nonnull align 8 dereferenceable(8) ptr @_ZNSt6vectorIdSaIdEEixEm(ptr noundef nonnull align 8 dereferenceable(24) %77, i64 noundef 2) #3
  store double %74, ptr %78, align 8, !tbaa !56
  call void @llvm.lifetime.end.p0(i64 8, ptr %15) #3
  call void @llvm.lifetime.end.p0(i64 8, ptr %14) #3
  call void @llvm.lifetime.start.p0(i64 8, ptr %16) #3
  %79 = getelementptr inbounds nuw %"class.cv::dnn_objdetect::InferBbox", ptr %18, i32 0, i32 5
  %80 = load i32, ptr %79, align 4, !tbaa !42
  %81 = uitofp i32 %80 to double
  %82 = fsub double %81, 1.000000e+00
  store double %82, ptr %16, align 8, !tbaa !56
  %83 = call noundef nonnull align 8 dereferenceable(8) ptr @_ZSt3minIdERKT_S2_S2_(ptr noundef nonnull align 8 dereferenceable(8) %16, ptr noundef nonnull align 8 dereferenceable(8) %9)
  call void @llvm.lifetime.start.p0(i64 8, ptr %17) #3
  store double 0.000000e+00, ptr %17, align 8, !tbaa !56
  %84 = call noundef nonnull align 8 dereferenceable(8) ptr @_ZSt3maxIdERKT_S2_S2_(ptr noundef nonnull align 8 dereferenceable(8) %83, ptr noundef nonnull align 8 dereferenceable(8) %17)
  %85 = load double, ptr %84, align 8, !tbaa !56
  %86 = load ptr, ptr %4, align 8, !tbaa !66
  %87 = load i64, ptr %5, align 8, !tbaa !52
  %88 = call noundef nonnull align 8 dereferenceable(24) ptr @_ZNSt6vectorIS_IdSaIdEESaIS1_EEixEm(ptr noundef nonnull align 8 dereferenceable(24) %86, i64 noundef %87) #3
  %89 = call noundef nonnull align 8 dereferenceable(8) ptr @_ZNSt6vectorIdSaIdEEixEm(ptr noundef nonnull align 8 dereferenceable(24) %88, i64 noundef 3) #3
  store double %85, ptr %89, align 8, !tbaa !56
  call void @llvm.lifetime.end.p0(i64 8, ptr %17) #3
  call void @llvm.lifetime.end.p0(i64 8, ptr %16) #3
  call void @llvm.lifetime.end.p0(i64 8, ptr %9) #3
  call void @llvm.lifetime.end.p0(i64 8, ptr %8) #3
  call void @llvm.lifetime.end.p0(i64 8, ptr %7) #3
  call void @llvm.lifetime.end.p0(i64 8, ptr %6) #3
  br label %90

90:                                               ; preds = %25
  %91 = load i64, ptr %5, align 8, !tbaa !52
  %92 = add i64 %91, 1
  store i64 %92, ptr %5, align 8, !tbaa !52
  br label %19, !llvm.loop !102

93:                                               ; preds = %24
  ret void
}