; Function Attrs: mustprogress nofree norecurse nosync nounwind memory(readwrite, inaccessiblemem: none) uwtable
define void @_ZN2cv13dnn_objdetect9InferBbox18assert_predictionsEPSt6vectorIS2_IdSaIdEESaIS4_EE(ptr noundef nonnull readonly align 8 captures(none) dereferenceable(472) %0, ptr noundef readonly captures(none) %1) local_unnamed_addr #8 align 2 {
  %3 = getelementptr inbounds nuw i8, ptr %0, i64 432
  %4 = load i64, ptr %3, align 8, !tbaa !43
  %.not = icmp eq i64 %4, 0
  br i1 %.not, label %._crit_edge, label %.lr.ph

.lr.ph:                                           ; preds = %2
  %5 = load ptr, ptr %1, align 8, !tbaa !49
  %6 = getelementptr inbounds nuw i8, ptr %0, i64 312
  %7 = load i32, ptr %6, align 8, !tbaa !3
  %8 = uitofp i32 %7 to double
  %9 = fadd double %8, -1.000000e+00
  %10 = getelementptr inbounds nuw i8, ptr %0, i64 316
  %11 = load i32, ptr %10, align 4, !tbaa !38
  %12 = uitofp i32 %11 to double
  %13 = fadd double %12, -1.000000e+00
  br label %14

._crit_edge:                                      ; preds = %14, %2
  ret void

14:                                               ; preds = %.lr.ph, %14
  %.061 = phi i64 [ 0, %.lr.ph ], [ %32, %14 ]
  %15 = getelementptr inbounds nuw %"class.std::vector.15", ptr %5, i64 %.061
  %16 = load ptr, ptr %15, align 8, !tbaa !50
  %17 = load double, ptr %16, align 8, !tbaa !58
  %18 = getelementptr inbounds nuw i8, ptr %16, i64 8
  %19 = load double, ptr %18, align 8, !tbaa !58
  %20 = getelementptr inbounds nuw i8, ptr %16, i64 16
  %21 = load double, ptr %20, align 8, !tbaa !58
  %22 = getelementptr inbounds nuw i8, ptr %16, i64 24
  %23 = load double, ptr %22, align 8, !tbaa !58
  %24 = fcmp ogt double %17, 0.000000e+00
  %.sroa.speculated53 = select i1 %24, double %17, double 0.000000e+00
  %25 = fcmp olt double %9, %.sroa.speculated53
  %.sroa.speculated48 = select i1 %25, double %9, double %.sroa.speculated53
  store double %.sroa.speculated48, ptr %16, align 8, !tbaa !58
  %26 = fcmp ogt double %19, 0.000000e+00
  %.sroa.speculated43 = select i1 %26, double %19, double 0.000000e+00
  %27 = fcmp olt double %13, %.sroa.speculated43
  %.sroa.speculated38 = select i1 %27, double %13, double %.sroa.speculated43
  store double %.sroa.speculated38, ptr %18, align 8, !tbaa !58
  %28 = fcmp olt double %21, %9
  %.sroa.speculated33 = select i1 %28, double %21, double %9
  %29 = fcmp olt double %.sroa.speculated33, 0.000000e+00
  %.sroa.speculated28 = select i1 %29, double 0.000000e+00, double %.sroa.speculated33
  store double %.sroa.speculated28, ptr %20, align 8, !tbaa !58
  %30 = fcmp olt double %23, %13
  %.sroa.speculated25 = select i1 %30, double %23, double %13
  %31 = fcmp olt double %.sroa.speculated25, 0.000000e+00
  %.sroa.speculated = select i1 %31, double 0.000000e+00, double %.sroa.speculated25
  store double %.sroa.speculated, ptr %22, align 8, !tbaa !58
  %32 = add nuw i64 %.061, 1
  %exitcond.not = icmp eq i64 %32, %4
  br i1 %exitcond.not, label %._crit_edge, label %14, !llvm.loop !95
}